; Function Attrs: mustprogress nounwind uwtable
define void @_ZN12DecodeAsItemD2Ev(ptr nocapture noundef nonnull align 8 dereferenceable(120) %0) unnamed_addr #1 align 2 {
  store ptr getelementptr inbounds ({ [4 x ptr] }, ptr @_ZTV12DecodeAsItem, i64 0, i32 0, i64 2), ptr %0, align 8
  %2 = getelementptr inbounds i8, ptr %0, i64 88
  %3 = load ptr, ptr %2, align 8
  %.not.i.i.i = icmp eq ptr %3, null
  br i1 %.not.i.i.i, label %_ZN7QStringD2Ev.exit, label %_ZN17QArrayDataPointerIDsE5derefEv.exit.i.i

_ZN17QArrayDataPointerIDsE5derefEv.exit.i.i:      ; preds = %1
  %4 = atomicrmw sub ptr %3, i32 1 seq_cst, align 4
  %.not.i.i = icmp eq i32 %4, 1
  br i1 %.not.i.i, label %5, label %_ZN7QStringD2Ev.exit

5:                                                ; preds = %_ZN17QArrayDataPointerIDsE5derefEv.exit.i.i
  %6 = load ptr, ptr %2, align 8
  tail call void @_ZN10QArrayData10deallocateEPS_xx(ptr noundef %6, i64 noundef 2, i64 noundef 8) #19
  br label %_ZN7QStringD2Ev.exit

_ZN7QStringD2Ev.exit:                             ; preds = %1, %_ZN17QArrayDataPointerIDsE5derefEv.exit.i.i, %5
  %7 = getelementptr inbounds i8, ptr %0, i64 64
  %8 = load ptr, ptr %7, align 8
  %.not.i.i.i1 = icmp eq ptr %8, null
  br i1 %.not.i.i.i1, label %_ZN7QStringD2Ev.exit4, label %_ZN17QArrayDataPointerIDsE5derefEv.exit.i.i2

_ZN17QArrayDataPointerIDsE5derefEv.exit.i.i2:     ; preds = %_ZN7QStringD2Ev.exit
  %9 = atomicrmw sub ptr %8, i32 1 seq_cst, align 4
  %.not.i.i3 = icmp eq i32 %9, 1
  br i1 %.not.i.i3, label %10, label %_ZN7QStringD2Ev.exit4

10:                                               ; preds = %_ZN17QArrayDataPointerIDsE5derefEv.exit.i.i2
  %11 = load ptr, ptr %7, align 8
  tail call void @_ZN10QArrayData10deallocateEPS_xx(ptr noundef %11, i64 noundef 2, i64 noundef 8) #19
  br label %_ZN7QStringD2Ev.exit4

_ZN7QStringD2Ev.exit4:                            ; preds = %_ZN7QStringD2Ev.exit, %_ZN17QArrayDataPointerIDsE5derefEv.exit.i.i2, %10
  %12 = getelementptr inbounds i8, ptr %0, i64 32
  %13 = load ptr, ptr %12, align 8
  %.not.i.i.i5 = icmp eq ptr %13, null
  br i1 %.not.i.i.i5, label %_ZN7QStringD2Ev.exit8, label %_ZN17QArrayDataPointerIDsE5derefEv.exit.i.i6

_ZN17QArrayDataPointerIDsE5derefEv.exit.i.i6:     ; preds = %_ZN7QStringD2Ev.exit4
  %14 = atomicrmw sub ptr %13, i32 1 seq_cst, align 4
  %.not.i.i7 = icmp eq i32 %14, 1
  br i1 %.not.i.i7, label %15, label %_ZN7QStringD2Ev.exit8

15:                                               ; preds = %_ZN17QArrayDataPointerIDsE5derefEv.exit.i.i6
  %16 = load ptr, ptr %12, align 8
  tail call void @_ZN10QArrayData10deallocateEPS_xx(ptr noundef %16, i64 noundef 2, i64 noundef 8) #19
  br label %_ZN7QStringD2Ev.exit8

_ZN7QStringD2Ev.exit8:                            ; preds = %_ZN7QStringD2Ev.exit4, %_ZN17QArrayDataPointerIDsE5derefEv.exit.i.i6, %15
  ret void
}